target datalayout = "e-m:e-p270:32:32-p271:32:32-p272:64:64-i64:64-i128:128-f80:128-n8:16:32:64-S128"
target triple = "x86_64-pc-linux-gnu"

%struct.AVFilterContext = type { ptr, ptr, ptr, ptr, ptr, i32, ptr, ptr, i32, ptr, ptr, i32, i32, ptr, ptr, ptr, ptr, i32, ptr, i32, i32 }
%struct.ShearContext = type { ptr, float, float, i32, [4 x i8], ptr, i32, i32, i32, %struct.FFDrawContext, %struct.FFDrawColor, i32, i32, [4 x i32], [4 x i32], [2 x ptr] }
%struct.FFDrawContext = type { ptr, i32, i32, [4 x i32], [4 x i8], [4 x i8], i8, i8, i32, i32, i32, [3 x [3 x double]] }
%struct.FFDrawColor = type { [4 x i8], [4 x %union.anon.2] }
%union.anon.2 = type { [4 x i32] }
%struct.ThreadData = type { ptr, ptr }
%struct.AVFilterLink = type { ptr, ptr, ptr, ptr, i32, i32, i32, i32, %struct.AVRational, i32, i32, i32, %struct.AVChannelLayout, %struct.AVRational, ptr, i32, %struct.AVFilterFormatsConfig, %struct.AVFilterFormatsConfig }
%struct.AVChannelLayout = type { i32, i32, %union.anon.1, ptr }
%union.anon.1 = type { i64 }
%struct.AVRational = type { i32, i32 }
%struct.AVFilterFormatsConfig = type { ptr, ptr, ptr, ptr, ptr }
%struct.AVFrame = type { [8 x ptr], [8 x i32], ptr, i32, i32, i32, i32, i32, %struct.AVRational, i64, i64, %struct.AVRational, i32, ptr, i32, i32, [8 x ptr], ptr, i32, ptr, i32, i32, i32, i32, i32, i32, i32, i64, ptr, i32, ptr, ptr, i64, i64, i64, i64, ptr, %struct.AVChannelLayout, i64 }

; Function Attrs: nounwind uwtable
define internal i32 @filter_frame(ptr noundef %0, ptr noundef %1) #1 {
  %3 = alloca i32, align 4
  %4 = alloca ptr, align 8
  %5 = alloca ptr, align 8
  %6 = alloca ptr, align 8
  %7 = alloca ptr, align 8
  %8 = alloca ptr, align 8
  %9 = alloca %struct.ThreadData, align 8
  %10 = alloca ptr, align 8
  %11 = alloca i32, align 4
  store ptr %0, ptr %4, align 8, !tbaa !33
  store ptr %1, ptr %5, align 8, !tbaa !35
  call void @llvm.lifetime.start.p0(i64 8, ptr %6) #8
  %12 = load ptr, ptr %4, align 8, !tbaa !33
  %13 = getelementptr inbounds nuw %struct.AVFilterLink, ptr %12, i32 0, i32 2
  %14 = load ptr, ptr %13, align 8, !tbaa !37
  store ptr %14, ptr %6, align 8, !tbaa !4
  call void @llvm.lifetime.start.p0(i64 8, ptr %7) #8
  %15 = load ptr, ptr %6, align 8, !tbaa !4
  %16 = getelementptr inbounds nuw %struct.AVFilterContext, ptr %15, i32 0, i32 9
  %17 = load ptr, ptr %16, align 8, !tbaa !9
  store ptr %17, ptr %7, align 8, !tbaa !22
  call void @llvm.lifetime.start.p0(i64 8, ptr %8) #8
  %18 = load ptr, ptr %6, align 8, !tbaa !4
  %19 = getelementptr inbounds nuw %struct.AVFilterContext, ptr %18, i32 0, i32 7
  %20 = load ptr, ptr %19, align 8, !tbaa !45
  %21 = getelementptr inbounds ptr, ptr %20, i64 0
  %22 = load ptr, ptr %21, align 8, !tbaa !33
  store ptr %22, ptr %8, align 8, !tbaa !33
  call void @llvm.lifetime.start.p0(i64 16, ptr %9) #8
  call void @llvm.lifetime.start.p0(i64 8, ptr %10) #8
  %23 = load ptr, ptr %8, align 8, !tbaa !33
  %24 = load ptr, ptr %8, align 8, !tbaa !33
  %25 = getelementptr inbounds nuw %struct.AVFilterLink, ptr %24, i32 0, i32 6
  %26 = load i32, ptr %25, align 8, !tbaa !46
  %27 = load ptr, ptr %8, align 8, !tbaa !33
  %28 = getelementptr inbounds nuw %struct.AVFilterLink, ptr %27, i32 0, i32 7
  %29 = load i32, ptr %28, align 4, !tbaa !47
  %30 = call ptr @ff_get_video_buffer(ptr noundef %23, i32 noundef %26, i32 noundef %29)
  store ptr %30, ptr %10, align 8, !tbaa !35
  %31 = load ptr, ptr %10, align 8, !tbaa !35
  %32 = icmp ne ptr %31, null
  br i1 %32, label %34, label %33

33:                                               ; preds = %2
  call void @av_frame_free(ptr noundef %5)
  store i32 -12, ptr %3, align 4
  store i32 1, ptr %11, align 4
  br label %94

34:                                               ; preds = %2
  %35 = load ptr, ptr %10, align 8, !tbaa !35
  %36 = load ptr, ptr %5, align 8, !tbaa !35
  %37 = call i32 @av_frame_copy_props(ptr noundef %35, ptr noundef %36)
  %38 = load ptr, ptr %7, align 8, !tbaa !22
  %39 = getelementptr inbounds nuw %struct.ShearContext, ptr %38, i32 0, i32 6
  %40 = load i32, ptr %39, align 8, !tbaa !30
  %41 = icmp ne i32 %40, 0
  br i1 %41, label %42, label %59

42:                                               ; preds = %34
  %43 = load ptr, ptr %7, align 8, !tbaa !22
  %44 = getelementptr inbounds nuw %struct.ShearContext, ptr %43, i32 0, i32 9
  %45 = load ptr, ptr %7, align 8, !tbaa !22
  %46 = getelementptr inbounds nuw %struct.ShearContext, ptr %45, i32 0, i32 10
  %47 = load ptr, ptr %10, align 8, !tbaa !35
  %48 = getelementptr inbounds nuw %struct.AVFrame, ptr %47, i32 0, i32 0
  %49 = getelementptr inbounds [8 x ptr], ptr %48, i64 0, i64 0
  %50 = load ptr, ptr %10, align 8, !tbaa !35
  %51 = getelementptr inbounds nuw %struct.AVFrame, ptr %50, i32 0, i32 1
  %52 = getelementptr inbounds [8 x i32], ptr %51, i64 0, i64 0
  %53 = load ptr, ptr %8, align 8, !tbaa !33
  %54 = getelementptr inbounds nuw %struct.AVFilterLink, ptr %53, i32 0, i32 6
  %55 = load i32, ptr %54, align 8, !tbaa !46
  %56 = load ptr, ptr %8, align 8, !tbaa !33
  %57 = getelementptr inbounds nuw %struct.AVFilterLink, ptr %56, i32 0, i32 7
  %58 = load i32, ptr %57, align 4, !tbaa !47
  call void @ff_fill_rectangle(ptr noundef %44, ptr noundef %46, ptr noundef %49, ptr noundef %52, i32 noundef 0, i32 noundef 0, i32 noundef %55, i32 noundef %58)
  br label %59

59:                                               ; preds = %42, %34
  %60 = load ptr, ptr %5, align 8, !tbaa !35
  %61 = getelementptr inbounds nuw %struct.ThreadData, ptr %9, i32 0, i32 0
  store ptr %60, ptr %61, align 8, !tbaa !48
  %62 = load ptr, ptr %10, align 8, !tbaa !35
  %63 = getelementptr inbounds nuw %struct.ThreadData, ptr %9, i32 0, i32 1
  store ptr %62, ptr %63, align 8, !tbaa !50
  %64 = load ptr, ptr %6, align 8, !tbaa !4
  %65 = load ptr, ptr %7, align 8, !tbaa !22
  %66 = getelementptr inbounds nuw %struct.ShearContext, ptr %65, i32 0, i32 15
  %67 = load ptr, ptr %7, align 8, !tbaa !22
  %68 = getelementptr inbounds nuw %struct.ShearContext, ptr %67, i32 0, i32 3
  %69 = load i32, ptr %68, align 8, !tbaa !51
  %70 = sext i32 %69 to i64
  %71 = getelementptr inbounds [2 x ptr], ptr %66, i64 0, i64 %70
  %72 = load ptr, ptr %71, align 8, !tbaa !52
  %73 = load ptr, ptr %7, align 8, !tbaa !22
  %74 = getelementptr inbounds nuw %struct.ShearContext, ptr %73, i32 0, i32 14
  %75 = getelementptr inbounds [4 x i32], ptr %74, i64 0, i64 1
  %76 = load i32, ptr %75, align 4, !tbaa !32
  %77 = load ptr, ptr %6, align 8, !tbaa !4
  %78 = call i32 @ff_filter_get_nb_threads(ptr noundef %77) #9
  %79 = icmp sgt i32 %76, %78
  br i1 %79, label %80, label %83

80:                                               ; preds = %59
  %81 = load ptr, ptr %6, align 8, !tbaa !4
  %82 = call i32 @ff_filter_get_nb_threads(ptr noundef %81) #9
  br label %88

83:                                               ; preds = %59
  %84 = load ptr, ptr %7, align 8, !tbaa !22
  %85 = getelementptr inbounds nuw %struct.ShearContext, ptr %84, i32 0, i32 14
  %86 = getelementptr inbounds [4 x i32], ptr %85, i64 0, i64 1
  %87 = load i32, ptr %86, align 4, !tbaa !32
  br label %88

88:                                               ; preds = %83, %80
  %89 = phi i32 [ %82, %80 ], [ %87, %83 ]
  %90 = call i32 @ff_filter_execute(ptr noundef %64, ptr noundef %72, ptr noundef %9, ptr noundef null, i32 noundef %89)
  call void @av_frame_free(ptr noundef %5)
  %91 = load ptr, ptr %8, align 8, !tbaa !33
  %92 = load ptr, ptr %10, align 8, !tbaa !35
  %93 = call i32 @ff_filter_frame(ptr noundef %91, ptr noundef %92)
  store i32 %93, ptr %3, align 4
  store i32 1, ptr %11, align 4
  br label %94

94:                                               ; preds = %88, %33
  call void @llvm.lifetime.end.p0(i64 8, ptr %10) #8
  call void @llvm.lifetime.end.p0(i64 16, ptr %9) #8
  call void @llvm.lifetime.end.p0(i64 8, ptr %8) #8
  call void @llvm.lifetime.end.p0(i64 8, ptr %7) #8
  call void @llvm.lifetime.end.p0(i64 8, ptr %6) #8
  %95 = load i32, ptr %3, align 4
  ret i32 %95
}