; Function Attrs: nounwind uwtable
define internal i32 @filter_frame(ptr noundef readonly captures(none) %0, ptr noundef %1) #1 {
  %3 = alloca ptr, align 8
  %4 = alloca %struct.ThreadData, align 8
  store ptr %1, ptr %3, align 8, !tbaa !27
  %5 = getelementptr inbounds nuw i8, ptr %0, i64 16
  %6 = load ptr, ptr %5, align 8, !tbaa !29
  %7 = getelementptr inbounds nuw i8, ptr %6, i64 72
  %8 = load ptr, ptr %7, align 8, !tbaa !4
  %9 = getelementptr inbounds nuw i8, ptr %6, i64 56
  %10 = load ptr, ptr %9, align 8, !tbaa !38
  %11 = load ptr, ptr %10, align 8, !tbaa !39
  call void @llvm.lifetime.start.p0(i64 16, ptr nonnull %4) #10
  %12 = getelementptr inbounds nuw i8, ptr %11, i64 40
  %13 = load i32, ptr %12, align 8, !tbaa !41
  %14 = getelementptr inbounds nuw i8, ptr %11, i64 44
  %15 = load i32, ptr %14, align 4, !tbaa !42
  %16 = tail call ptr @ff_get_video_buffer(ptr noundef %11, i32 noundef %13, i32 noundef %15) #10
  %.not = icmp eq ptr %16, null
  br i1 %.not, label %17, label %18

17:                                               ; preds = %2
  call void @av_frame_free(ptr noundef nonnull %3) #10
  br label %41

18:                                               ; preds = %2
  %19 = tail call i32 @av_frame_copy_props(ptr noundef nonnull %16, ptr noundef %1) #10
  %20 = getelementptr inbounds nuw i8, ptr %8, i64 32
  %21 = load i32, ptr %20, align 8, !tbaa !26
  %.not28 = icmp eq i32 %21, 0
  br i1 %.not28, label %28, label %22

22:                                               ; preds = %18
  %23 = getelementptr inbounds nuw i8, ptr %8, i64 48
  %24 = getelementptr inbounds nuw i8, ptr %8, i64 176
  %25 = getelementptr inbounds nuw i8, ptr %16, i64 64
  %26 = load i32, ptr %12, align 8, !tbaa !41
  %27 = load i32, ptr %14, align 4, !tbaa !42
  tail call void @ff_fill_rectangle(ptr noundef nonnull %23, ptr noundef nonnull %24, ptr noundef nonnull %16, ptr noundef nonnull %25, i32 noundef 0, i32 noundef 0, i32 noundef %26, i32 noundef %27) #10
  br label %28

28:                                               ; preds = %22, %18
  store ptr %1, ptr %4, align 8, !tbaa !43
  %29 = getelementptr inbounds nuw i8, ptr %4, i64 8
  store ptr %16, ptr %29, align 8, !tbaa !45
  %30 = getelementptr inbounds nuw i8, ptr %8, i64 288
  %31 = getelementptr inbounds nuw i8, ptr %8, i64 16
  %32 = load i32, ptr %31, align 8, !tbaa !46
  %33 = sext i32 %32 to i64
  %34 = getelementptr inbounds [2 x ptr], ptr %30, i64 0, i64 %33
  %35 = load ptr, ptr %34, align 8, !tbaa !47
  %36 = getelementptr inbounds nuw i8, ptr %8, i64 272
  %37 = load i32, ptr %36, align 4, !tbaa !48
  %38 = tail call i32 @ff_filter_get_nb_threads(ptr noundef nonnull %6) #9
  %. = tail call i32 @llvm.smin.i32(i32 %37, i32 %38)
  %39 = call i32 @ff_filter_execute(ptr noundef nonnull %6, ptr noundef %35, ptr noundef nonnull %4, ptr noundef null, i32 noundef %.) #10
  call void @av_frame_free(ptr noundef nonnull %3) #10
  %40 = call i32 @ff_filter_frame(ptr noundef nonnull %11, ptr noundef nonnull %16) #10
  br label %41

41:                                               ; preds = %28, %17
  %.0 = phi i32 [ %40, %28 ], [ -12, %17 ]
  call void @llvm.lifetime.end.p0(i64 16, ptr nonnull %4) #10
  ret i32 %.0
}